target datalayout = "e-m:e-p270:32:32-p271:32:32-p272:64:64-i64:64-i128:128-f80:128-n8:16:32:64-S128"
target triple = "x86_64-pc-linux-gnu"

%struct.GenContext_ = type { i8, ptr, ptr, ptr, ptr, ptr, ptr, ptr, ptr, ptr, ptr, ptr, ptr, ptr, ptr, ptr, ptr, ptr, ptr, ptr, ptr, ptr, ptr, ptr, ptr, ptr, ptr, ptr, ptr, ptr, ptr, ptr, ptr, %struct.anon.85, i32, i32, %struct.DebugContext, ptr, ptr, ptr, %struct.BEValue, i8, %union.SourceSpan, ptr, ptr, ptr, ptr }
%struct.anon.85 = type { ptr, ptr, ptr }
%struct.DebugContext = type { i16, ptr, ptr, %struct.DebugFile_, ptr, ptr, ptr, ptr }
%struct.DebugFile_ = type { i16, ptr }
%struct.BEValue = type { i8, i32, ptr, ptr, ptr }
%union.SourceSpan = type { i64 }
%struct.anon = type { i16, i8, i8, i32 }
%struct.Type_ = type { i32, ptr, ptr, ptr, %union.anon.90, ptr, ptr, %union.anon.92 }
%union.anon.90 = type { ptr }
%union.anon.92 = type { %struct.TypeFunction }
%struct.TypeFunction = type { ptr, ptr, ptr }

@.str.7 = private unnamed_addr constant [1 x i8] zeroinitializer, align 1

; Function Attrs: nounwind uwtable
define internal ptr @llvm_get_debug_struct(ptr noundef %0, ptr noundef %1, ptr noundef %2, ptr noundef %3, i32 noundef %4, ptr noundef %5, ptr noundef %6, i32 noundef %7) #0 {
  %9 = alloca ptr, align 8
  %10 = alloca ptr, align 8
  %11 = alloca ptr, align 8
  %12 = alloca ptr, align 8
  %13 = alloca i32, align 4
  %14 = alloca ptr, align 8
  %15 = alloca ptr, align 8
  %16 = alloca i32, align 4
  %17 = alloca ptr, align 8
  %18 = alloca i32, align 4
  %19 = alloca i64, align 8
  %20 = alloca ptr, align 8
  store ptr %0, ptr %9, align 8
  store ptr %1, ptr %10, align 8
  store ptr %2, ptr %11, align 8
  store ptr %3, ptr %12, align 8
  store i32 %4, ptr %13, align 4
  store ptr %5, ptr %14, align 8
  store ptr %6, ptr %15, align 8
  store i32 %7, ptr %16, align 4
  store ptr null, ptr %17, align 8
  store i32 0, ptr %18, align 4
  %21 = load ptr, ptr %11, align 8
  %22 = call i64 @strlen(ptr noundef %21) #5
  store i64 %22, ptr %19, align 8
  %23 = load ptr, ptr %14, align 8
  %24 = icmp ne ptr %23, null
  br i1 %24, label %25, label %38

25:                                               ; preds = %8
  %26 = load ptr, ptr %9, align 8
  %27 = getelementptr inbounds %struct.GenContext_, ptr %26, i32 0, i32 36
  %28 = getelementptr inbounds %struct.DebugContext, ptr %27, i32 0, i32 3
  %29 = getelementptr inbounds %struct.DebugFile_, ptr %28, i32 0, i32 1
  %30 = load ptr, ptr %29, align 8
  store ptr %30, ptr %17, align 8
  %31 = load ptr, ptr %14, align 8
  %32 = getelementptr inbounds %struct.anon, ptr %31, i32 0, i32 3
  %33 = load i32, ptr %32, align 4
  store i32 %33, ptr %18, align 4
  %34 = load i32, ptr %18, align 4
  %35 = icmp ne i32 %34, 0
  br i1 %35, label %37, label %36

36:                                               ; preds = %25
  store i32 1, ptr %18, align 4
  br label %37

37:                                               ; preds = %36, %25
  br label %38

38:                                               ; preds = %37, %8
  %39 = load ptr, ptr %9, align 8
  %40 = getelementptr inbounds %struct.GenContext_, ptr %39, i32 0, i32 36
  %41 = getelementptr inbounds %struct.DebugContext, ptr %40, i32 0, i32 1
  %42 = load ptr, ptr %41, align 8
  %43 = load ptr, ptr %15, align 8
  %44 = load i64, ptr %19, align 8
  %45 = icmp ne i64 %44, 0
  br i1 %45, label %46, label %50

46:                                               ; preds = %38
  %47 = load ptr, ptr %10, align 8
  %48 = getelementptr inbounds %struct.Type_, ptr %47, i32 0, i32 2
  %49 = load ptr, ptr %48, align 8
  br label %51

50:                                               ; preds = %38
  br label %51

51:                                               ; preds = %50, %46
  %52 = phi ptr [ %49, %46 ], [ @.str.7, %50 ]
  %53 = load i64, ptr %19, align 8
  %54 = icmp ne i64 %53, 0
  br i1 %54, label %55, label %60

55:                                               ; preds = %51
  %56 = load ptr, ptr %10, align 8
  %57 = getelementptr inbounds %struct.Type_, ptr %56, i32 0, i32 2
  %58 = load ptr, ptr %57, align 8
  %59 = call i64 @strlen(ptr noundef %58) #5
  br label %61

60:                                               ; preds = %51
  br label %61

61:                                               ; preds = %60, %55
  %62 = phi i64 [ %59, %55 ], [ 0, %60 ]
  %63 = load ptr, ptr %17, align 8
  %64 = load i32, ptr %18, align 4
  %65 = load ptr, ptr %10, align 8
  %66 = call i32 @type_size(ptr noundef %65)
  %67 = mul i32 %66, 8
  %68 = zext i32 %67 to i64
  %69 = load ptr, ptr %10, align 8
  %70 = call i32 @type_abi_alignment(ptr noundef %69)
  %71 = mul i32 %70, 8
  %72 = load i32, ptr %16, align 4
  %73 = load ptr, ptr %12, align 8
  %74 = load i32, ptr %13, align 4
  %75 = load ptr, ptr %9, align 8
  %76 = getelementptr inbounds %struct.GenContext_, ptr %75, i32 0, i32 36
  %77 = load i16, ptr %76, align 8
  %78 = and i16 %77, 255
  %79 = zext i16 %78 to i32
  %80 = load ptr, ptr %11, align 8
  %81 = load ptr, ptr %11, align 8
  %82 = call i64 @strlen(ptr noundef %81) #5
  %83 = call ptr @LLVMDIBuilderCreateStructType(ptr noundef %42, ptr noundef %43, ptr noundef %52, i64 noundef %62, ptr noundef %63, i32 noundef %64, i64 noundef %68, i32 noundef %71, i32 noundef %72, ptr noundef null, ptr noundef %73, i32 noundef %74, i32 noundef %79, ptr noundef null, ptr noundef %80, i64 noundef %82)
  store ptr %83, ptr %20, align 8
  %84 = load ptr, ptr %10, align 8
  %85 = getelementptr inbounds %struct.Type_, ptr %84, i32 0, i32 6
  %86 = load ptr, ptr %85, align 8
  %87 = icmp ne ptr %86, null
  br i1 %87, label %88, label %93

88:                                               ; preds = %61
  %89 = load ptr, ptr %10, align 8
  %90 = getelementptr inbounds %struct.Type_, ptr %89, i32 0, i32 6
  %91 = load ptr, ptr %90, align 8
  %92 = load ptr, ptr %20, align 8
  call void @LLVMMetadataReplaceAllUsesWith(ptr noundef %91, ptr noundef %92)
  br label %93

93:                                               ; preds = %88, %61
  %94 = load ptr, ptr %20, align 8
  ret ptr %94
}