; Function Attrs: nounwind uwtable
define internal fastcc ptr @llvm_get_debug_struct(ptr nocapture noundef readonly %0, ptr noundef %1, ptr noundef %2, ptr noundef %3, i32 noundef %4, ptr noundef readonly %5, ptr noundef %6) unnamed_addr #0 {
  %char0 = load i8, ptr %2, align 1
  %.not = icmp eq ptr %5, null
  br i1 %.not, label %13, label %8

8:                                                ; preds = %7
  %9 = getelementptr inbounds i8, ptr %0, i64 328
  %10 = load ptr, ptr %9, align 8
  %11 = getelementptr inbounds i8, ptr %5, i64 4
  %12 = load i32, ptr %11, align 4
  %spec.store.select = tail call i32 @llvm.umax.i32(i32 %12, i32 1)
  br label %13

13:                                               ; preds = %8, %7
  %.024 = phi i32 [ %spec.store.select, %8 ], [ 0, %7 ]
  %.0 = phi ptr [ %10, %8 ], [ null, %7 ]
  %14 = getelementptr inbounds i8, ptr %0, i64 296
  %15 = getelementptr inbounds i8, ptr %0, i64 304
  %16 = load ptr, ptr %15, align 8
  %.not28 = icmp eq i8 %char0, 0
  br i1 %.not28, label %.thread, label %17

17:                                               ; preds = %13
  %18 = getelementptr inbounds i8, ptr %1, i64 16
  %19 = load ptr, ptr %18, align 8
  %20 = tail call i64 @strlen(ptr noundef nonnull dereferenceable(1) %19) #9
  br label %.thread

.thread:                                          ; preds = %13, %17
  %21 = phi ptr [ %19, %17 ], [ @.str.7, %13 ]
  %22 = phi i64 [ %20, %17 ], [ 0, %13 ]
  %23 = tail call i32 @type_size(ptr noundef %1) #8
  %24 = shl i32 %23, 3
  %25 = zext i32 %24 to i64
  %26 = tail call i32 @type_abi_alignment(ptr noundef %1) #8
  %27 = shl i32 %26, 3
  %28 = load i16, ptr %14, align 8
  %29 = and i16 %28, 255
  %30 = zext nneg i16 %29 to i32
  %31 = tail call i64 @strlen(ptr noundef nonnull dereferenceable(1) %2) #9
  %32 = tail call ptr @LLVMDIBuilderCreateStructType(ptr noundef %16, ptr noundef %6, ptr noundef %21, i64 noundef %22, ptr noundef %.0, i32 noundef %.024, i64 noundef %25, i32 noundef %27, i32 noundef 0, ptr noundef null, ptr noundef %3, i32 noundef %4, i32 noundef %30, ptr noundef null, ptr noundef nonnull %2, i64 noundef %31) #8
  %33 = getelementptr inbounds i8, ptr %1, i64 48
  %34 = load ptr, ptr %33, align 8
  %.not29 = icmp eq ptr %34, null
  br i1 %.not29, label %36, label %35

35:                                               ; preds = %.thread
  tail call void @LLVMMetadataReplaceAllUsesWith(ptr noundef nonnull %34, ptr noundef %32) #8
  br label %36

36:                                               ; preds = %35, %.thread
  ret ptr %32
}